; Function Attrs: mustprogress uwtable
define void @_ZN13IlmThread_3_24TaskC2EPNS_9TaskGroupE(ptr nocapture noundef nonnull writeonly align 8 dereferenceable(16) %this, ptr noundef %g) unnamed_addr #0 align 2 {
entry:
  store ptr getelementptr inbounds ({ [5 x ptr] }, ptr @_ZTVN13IlmThread_3_24TaskE, i64 0, i32 0, i64 2), ptr %this, align 8
  %_group = getelementptr inbounds i8, ptr %this, i64 8
  store ptr %g, ptr %_group, align 8
  %tobool.not = icmp eq ptr %g, null
  br i1 %tobool.not, label %if.end, label %if.then

if.then:                                          ; preds = %entry
  %0 = load ptr, ptr %g, align 8
  %inFlight.i = getelementptr inbounds i8, ptr %0, i64 4
  %1 = atomicrmw add ptr %inFlight.i, i32 1 seq_cst, align 4
  %2 = atomicrmw add ptr %0, i32 1 seq_cst, align 4
  %cmp.i = icmp eq i32 %2, 0
  br i1 %cmp.i, label %if.then.i, label %if.end

if.then.i:                                        ; preds = %if.then
  %isEmpty.i = getelementptr inbounds i8, ptr %0, i64 8
  tail call void @_ZN13IlmThread_3_29Semaphore4waitEv(ptr noundef nonnull align 8 dereferenceable(40) %isEmpty.i)
  br label %if.end

if.end:                                           ; preds = %if.then.i, %if.then, %entry
  ret void
}